; Function Attrs: mustprogress uwtable
define void @_ZN8LightGBM23FindBinWithZeroAsOneBinEPKdPKiiimiRKSt6vectorIdSaIdEE(ptr dead_on_unwind noalias writable sret(%"class.std::vector.131") align 8 initializes((0, 24)) %0, ptr noundef readonly captures(none) %1, ptr noundef readonly captures(none) %2, i32 noundef %3, i32 noundef %4, i64 noundef %5, i32 noundef %6, ptr noundef nonnull readonly align 8 captures(none) dereferenceable(24) %7) local_unnamed_addr #1 {
  %9 = load ptr, ptr %7, align 8, !tbaa !1001
  %10 = getelementptr inbounds nuw i8, ptr %7, i64 8
  %11 = load ptr, ptr %10, align 8, !tbaa !1001
  %12 = icmp eq ptr %9, %11
  br i1 %12, label %13, label %14

13:                                               ; preds = %8
  tail call void @_ZN8LightGBM23FindBinWithZeroAsOneBinEPKdPKiiimi(ptr dead_on_unwind writable sret(%"class.std::vector.131") align 8 %0, ptr noundef %1, ptr noundef %2, i32 noundef %3, i32 noundef %4, i64 noundef %5, i32 noundef %6)
  br label %15

14:                                               ; preds = %8
  tail call void @_ZN8LightGBM24FindBinWithPredefinedBinEPKdPKiiimiRKSt6vectorIdSaIdEE(ptr dead_on_unwind writable sret(%"class.std::vector.131") align 8 %0, ptr noundef %1, ptr noundef %2, i32 noundef %3, i32 noundef %4, i64 noundef %5, i32 noundef %6, ptr noundef nonnull align 8 dereferenceable(24) %7)
  br label %15

15:                                               ; preds = %14, %13
  ret void
}